; Function Attrs: nounwind uwtable
define internal void @jtrk_cons(ptr noundef initializes((144, 152), (576, 588), (592, 656)) %0) #0 {
  %2 = getelementptr inbounds nuw i8, ptr %0, i64 144
  store ptr null, ptr %2, align 8, !tbaa !85
  %3 = load i32, ptr @pmix_class_init_epoch, align 4, !tbaa !30
  %4 = load i32, ptr getelementptr inbounds nuw (i8, ptr @pmix_pointer_array_t_class, i64 32), align 8, !tbaa !43
  %.not = icmp eq i32 %3, %4
  br i1 %.not, label %6, label %5

5:                                                ; preds = %1
  tail call void @pmix_class_initialize(ptr noundef nonnull @pmix_pointer_array_t_class) #20
  br label %6

6:                                                ; preds = %5, %1
  %7 = getelementptr inbounds nuw i8, ptr %0, i64 536
  %8 = getelementptr inbounds nuw i8, ptr %0, i64 576
  store ptr @pmix_pointer_array_t_class, ptr %8, align 8, !tbaa !45
  %9 = getelementptr inbounds nuw i8, ptr %0, i64 584
  store i32 1, ptr %9, align 8, !tbaa !46
  %10 = getelementptr inbounds nuw i8, ptr %0, i64 592
  tail call void @llvm.memset.p0.i64(ptr noundef nonnull align 8 dereferenceable(64) %10, i8 0, i64 64, i1 false)
  %11 = load ptr, ptr getelementptr inbounds nuw (i8, ptr @pmix_pointer_array_t_class, i64 40), align 8, !tbaa !47
  %12 = load ptr, ptr %11, align 8, !tbaa !48
  %.not6.i = icmp eq ptr %12, null
  br i1 %.not6.i, label %pmix_obj_run_constructors.exit, label %.lr.ph.i

.lr.ph.i:                                         ; preds = %6, %.lr.ph.i
  %13 = phi ptr [ %15, %.lr.ph.i ], [ %12, %6 ]
  %.07.i = phi ptr [ %14, %.lr.ph.i ], [ %11, %6 ]
  tail call void %13(ptr noundef nonnull %7) #20
  %14 = getelementptr inbounds nuw i8, ptr %.07.i, i64 8
  %15 = load ptr, ptr %14, align 8, !tbaa !48
  %.not.i = icmp eq ptr %15, null
  br i1 %.not.i, label %pmix_obj_run_constructors.exit, label %.lr.ph.i, !llvm.loop !49

pmix_obj_run_constructors.exit:                   ; preds = %.lr.ph.i, %6
  %16 = tail call i32 @pmix_pointer_array_init(ptr noundef nonnull %7, i32 noundef 1, i32 noundef 2147483647, i32 noundef 1) #20
  %17 = getelementptr inbounds nuw i8, ptr %0, i64 696
  store i32 0, ptr %17, align 8, !tbaa !92
  ret void
}